
_main:

;main.c,46 :: 		int main(void)
;main.c,48 :: 		Relay_Init();
	CALL       _Relay_Init+0
;main.c,49 :: 		lcd16x2_init();
	CALL       _lcd16x2_init+0
;main.c,50 :: 		serial_init();
	CALL       _serial_init+0
;main.c,51 :: 		RTC_init();
	CALL       _RTC_init+0
;main.c,52 :: 		OS_Init();
	CALL       _OS_Init+0
;main.c,53 :: 		OS_Csem_Create(Relay_csem);
	CALL       __OS_DI_INT+0
	CLRF       _Relay_csem+0
	CLRF       _Relay_csem+1
	BTFSS      __OS_Temp_I+0, 7
	GOTO       L_main0
	BSF        GIE_bit+0, BitPos(GIE_bit+0)
L_main0:
;main.c,54 :: 		OS_Queue_Create(RELAY_QUEUE, RELAY_MSG_QUEUE, RELAY_MSG_LENGTH);
	MOVLW      2
	MOVWF      _RELAY_QUEUE+0
	CLRF       _RELAY_QUEUE+2
	CLRF       _RELAY_QUEUE+1
	MOVLW      _RELAY_MSG_QUEUE+0
	MOVWF      _RELAY_QUEUE+3
;main.c,55 :: 		OS_Task_Create(RELAY_TASK_PRIORITY, RELAY_TASK);
	MOVLW      1
	MOVWF      FARG__OS_Task_Create_priority+0
	MOVLW      _RELAY_TASK+0
	MOVWF      FARG__OS_Task_Create_TaskAddr+0
	MOVLW      hi_addr(_RELAY_TASK+0)
	MOVWF      FARG__OS_Task_Create_TaskAddr+1
	CALL       __OS_Task_Create+0
;main.c,56 :: 		OS_Task_Create(LCD_TASK_PRIORITY, LCD_TASK);
	MOVLW      1
	MOVWF      FARG__OS_Task_Create_priority+0
	MOVLW      _LCD_TASK+0
	MOVWF      FARG__OS_Task_Create_TaskAddr+0
	MOVLW      hi_addr(_LCD_TASK+0)
	MOVWF      FARG__OS_Task_Create_TaskAddr+1
	CALL       __OS_Task_Create+0
;main.c,57 :: 		OS_Task_Create(USART_TASK_PRIORITY, USART_TASK);
	MOVLW      1
	MOVWF      FARG__OS_Task_Create_priority+0
	MOVLW      _USART_TASK+0
	MOVWF      FARG__OS_Task_Create_TaskAddr+0
	MOVLW      hi_addr(_USART_TASK+0)
	MOVWF      FARG__OS_Task_Create_TaskAddr+1
	CALL       __OS_Task_Create+0
;main.c,58 :: 		Systick_Init();
	CALL       _systick_init+0
;main.c,59 :: 		OS_Run();
L_main1:
	BCF        __OS_Flags+0, 4
	BSF        __OS_Flags+0, 3
	CLRF       __OS_Best_Priority+0
	CLRF       __OS_Worst_Priority+0
	BTFSS      __OS_Flags+0, 2
	GOTO       L_main4
	GOTO       ___main__OS_SCHED_CHECK_READY
L_main4:
	MOVLW      5
	MOVWF      __OS_n+0
L_main5:
	MOVLW      1
	SUBWF      __OS_n+0, 0
	MOVWF      R0+0
	CLRF       R0+1
	BTFSS      STATUS+0, 0
	DECF       R0+1, 1
	MOVF       R0+0, 0
	ADDLW      __OS_TaskQueue+0
	MOVWF      FSR
	MOVF       INDF+0, 0
	MOVWF      __OS_Cur_Pos+0
___main__OS_SCHED_CHECK_READY:
	MOVLW      5
	MOVWF      R0+0
	MOVF       __OS_Cur_Pos+0, 0
	MOVWF      R4+0
	CALL       _Mul_8X8_U+0
	MOVF       R0+0, 0
	ADDLW      __OS_Tasks+0
	MOVWF      __OS_CurTask+0
	CALL       ___OS_SET_FSR_CUR_TASK+0
	BTFSS      __indf+0, 6
	GOTO       L__main88
	BTFSC      __indf+0, 7
	GOTO       L__main88
	GOTO       L_main10
L__main88:
	GOTO       ___main__OS_SCHED_CONTINUE
L_main10:
	BTFSC      __indf+0, 3
	GOTO       L_main11
___main__OS_SCHED_RUN:
	CALL       __OS_JumpToTask+0
	CLRF       __status+0
	MOVLW      hi_addr($+0)
	MOVWF      __pclath+0
	CALL       ___OS_SET_FSR_CUR_TASK+0
	BTFSC      __OS_Flags+0, 3
	GOTO       L_main12
	BTFSC      __indf+0, 3
	GOTO       L__main87
	BTFSC      __OS_Flags+0, 7
	GOTO       L__main87
	GOTO       L_main15
L__main87:
	MOVF       __OS_Cur_Pos+0, 0
	ADDLW      __OS_TaskLevel+0
	MOVWF      R1+0
	MOVF       R1+0, 0
	MOVWF      FSR
	MOVF       __OS_Worst_Priority+0, 0
	SUBWF      INDF+0, 0
	MOVWF      R0+0
	MOVF       R1+0, 0
	MOVWF      FSR
	MOVF       R0+0, 0
	MOVWF      INDF+0
	MOVF       __OS_Best_n+0, 0
	MOVWF      __OS_n+0
L_main16:
	MOVF       __OS_n+0, 0
	BTFSC      STATUS+0, 2
	GOTO       L_main17
	MOVF       __OS_n+0, 0
	ADDLW      __OS_TaskQueue+0
	MOVWF      R2+0
	MOVLW      1
	SUBWF      __OS_n+0, 0
	MOVWF      R0+0
	CLRF       R0+1
	BTFSS      STATUS+0, 0
	DECF       R0+1, 1
	MOVF       R0+0, 0
	ADDLW      __OS_TaskQueue+0
	MOVWF      FSR
	MOVF       INDF+0, 0
	MOVWF      R0+0
	MOVF       R2+0, 0
	MOVWF      FSR
	MOVF       R0+0, 0
	MOVWF      INDF+0
	DECF       __OS_n+0, 1
	GOTO       L_main16
L_main17:
	MOVF       __OS_Cur_Pos+0, 0
	MOVWF      __OS_TaskQueue+0
L_main15:
	GOTO       ___main_SCHED_END
L_main12:
L_main11:
	BTFSS      __indf+0, 4
	GOTO       L_main20
	BTFSC      __indf+0, 5
	GOTO       L_main20
L__main86:
	GOTO       ___main__OS_SCHED_CONTINUE
L_main20:
	BTFSS      __indf+0, 3
	GOTO       L_main21
	MOVF       __OS_Cur_Pos+0, 0
	ADDLW      __OS_TaskLevel+0
	MOVWF      FSR
	MOVF       INDF+0, 0
	MOVWF      R1+0
	MOVF       R1+0, 0
	MOVWF      __OS_Temp+0
	BTFSC      R1+0, 7
	GOTO       L_main22
	MOVLW      8
	ADDWF      __OS_Temp+0, 0
	MOVWF      R1+0
	MOVF       R1+0, 0
	MOVWF      __OS_Temp+0
	MOVF       __OS_CurTask+0, 0
	MOVWF      FSR
	MOVF       INDF+0, 0
	MOVWF      R0+0
	MOVLW      7
	ANDWF      R0+0, 1
	MOVF       R0+0, 0
	SUBWF      R1+0, 0
	MOVWF      R0+0
	MOVF       R0+0, 0
	MOVWF      __OS_Temp+0
	MOVF       __OS_Cur_Pos+0, 0
	ADDLW      __OS_TaskLevel+0
	MOVWF      FSR
	MOVF       R0+0, 0
	MOVWF      INDF+0
L_main22:
	MOVF       __OS_Temp+0, 0
	SUBWF      __OS_Best_Priority+0, 0
	BTFSC      STATUS+0, 0
	GOTO       L_main23
	MOVF       __OS_Best_Priority+0, 0
	MOVWF      __OS_Worst_Priority+0
	MOVF       __OS_Temp+0, 0
	MOVWF      __OS_Best_Priority+0
	DECF       __OS_n+0, 0
	MOVWF      __OS_Best_n+0
	BSF        __OS_Flags+0, 4
	GOTO       L_main24
L_main23:
	MOVF       __OS_Temp+0, 0
	SUBWF      __OS_Worst_Priority+0, 0
	BTFSC      STATUS+0, 0
	GOTO       L_main25
	MOVF       __OS_Temp+0, 0
	MOVWF      __OS_Worst_Priority+0
L_main25:
L_main24:
L_main21:
___main__OS_SCHED_CONTINUE:
	BTFSC      __OS_Flags+0, 2
	GOTO       L__main85
	DECF       __OS_n+0, 1
	MOVF       __OS_n+0, 0
	BTFSC      STATUS+0, 2
	GOTO       L__main85
	GOTO       L_main5
L__main85:
	BTFSS      __OS_Flags+0, 4
	GOTO       L_main28
	BCF        __OS_Flags+0, 3
	BCF        __OS_Flags+0, 7
	MOVF       __OS_Best_n+0, 0
	ADDLW      __OS_TaskQueue+0
	MOVWF      FSR
	MOVF       INDF+0, 0
	MOVWF      R0+0
	MOVF       R0+0, 0
	MOVWF      __OS_Cur_Pos+0
	MOVLW      5
	MOVWF      R4+0
	CALL       _Mul_8X8_U+0
	MOVF       R0+0, 0
	ADDLW      __OS_Tasks+0
	MOVWF      __OS_CurTask+0
	CALL       ___OS_SET_FSR_CUR_TASK+0
	BTFSS      __indf+0, 6
	GOTO       L_main31
	BTFSC      __indf+0, 7
	GOTO       L_main31
L__main84:
	GOTO       ___main__OS_SCHED_RUN
L_main31:
L_main28:
___main_SCHED_END:
	GOTO       L_main1
;main.c,62 :: 		}
L_end_main:
	GOTO       $+0
; end of _main

_USART_TASK:

;main.c,63 :: 		void USART_TASK(void)
;main.c,68 :: 		while(1)
L_USART_TASK34:
;main.c,70 :: 		if (serial_dataready())
	CALL       _serial_dataready+0
	MOVF       R0+0, 0
	BTFSC      STATUS+0, 2
	GOTO       L_USART_TASK36
;main.c,72 :: 		read = serial_read();
	CALL       _serial_read+0
;main.c,74 :: 		if (serial_process_data(read, &cmd_Type, param))
	MOVF       R0+0, 0
	MOVWF      FARG_serial_process_data_readata+0
	MOVLW      USART_TASK_cmd_Type_L0+0
	MOVWF      FARG_serial_process_data_TyprCmd+0
	MOVLW      USART_TASK_param_L0+0
	MOVWF      FARG_serial_process_data_Value+0
	CALL       _serial_process_data+0
	MOVF       R0+0, 0
	BTFSC      STATUS+0, 2
	GOTO       L_USART_TASK37
;main.c,76 :: 		switch(cmd_Type)
	GOTO       L_USART_TASK38
;main.c,78 :: 		case RELAY_STATUS_CMD_CODE:
L_USART_TASK40:
;main.c,79 :: 		OS_Csem_Signal(Relay_csem);
L_USART_TASK41:
	CALL       __OS_DI_INT+0
	MOVLW      _Relay_csem+0
	MOVWF      FARG__OS_Csem_Signal_pCSem+0
	CALL       __OS_Csem_Signal+0
	BTFSS      __OS_Temp_I+0, 7
	GOTO       L_USART_TASK44
	BSF        GIE_bit+0, BitPos(GIE_bit+0)
L_USART_TASK44:
	BTFSC      __OS_Flags+0, 0
	GOTO       L_USART_TASK45
	GOTO       L_USART_TASK42
L_USART_TASK45:
	MOVLW      hi_addr(__OS_ReturnSave+0)
	MOVWF      __pclath+0
	MOVLW      $+4
	MOVWF      __fsr+0
	MOVLW      hi_addr($+2)
	GOTO       __OS_ReturnSave+0
	GOTO       L_USART_TASK41
L_USART_TASK42:
;main.c,80 :: 		OS_Queue_Send_Now(RELAY_QUEUE, param[0]);
	MOVLW      _RELAY_QUEUE+0
	MOVWF      FARG__OS_Queue_Send_pQueue+0
	MOVF       USART_TASK_param_L0+0, 0
	MOVWF      FARG__OS_Queue_Send_Msg+0
	CALL       __OS_Queue_Send+0
;main.c,81 :: 		break;
	GOTO       L_USART_TASK39
;main.c,82 :: 		case RELAY_OFF_TIME_CMD_CODE:
L_USART_TASK46:
;main.c,83 :: 		currentindex = (currentindex +1) % MAX_STORAGE_TIME;
	MOVF       main_currentindex+0, 0
	ADDLW      1
	MOVWF      R0+0
	CLRF       R0+1
	BTFSC      STATUS+0, 0
	INCF       R0+1, 1
	MOVLW      3
	MOVWF      R4+0
	MOVLW      0
	MOVWF      R4+1
	CALL       _Div_16x16_S+0
	MOVF       R8+0, 0
	MOVWF      R0+0
	MOVF       R8+1, 0
	MOVWF      R0+1
	MOVF       R0+0, 0
	MOVWF      main_currentindex+0
;main.c,84 :: 		sp_sec[currentindex] = param[0];
	MOVF       R0+0, 0
	ADDLW      main_sp_sec+0
	MOVWF      FSR
	MOVF       USART_TASK_param_L0+0, 0
	MOVWF      INDF+0
;main.c,85 :: 		sp_min[currentindex] = param[1];
	MOVF       main_currentindex+0, 0
	ADDLW      main_sp_min+0
	MOVWF      FSR
	MOVF       USART_TASK_param_L0+1, 0
	MOVWF      INDF+0
;main.c,86 :: 		sp_hr[currentindex] = param[2];
	MOVF       main_currentindex+0, 0
	ADDLW      main_sp_hr+0
	MOVWF      FSR
	MOVF       USART_TASK_param_L0+2, 0
	MOVWF      INDF+0
;main.c,87 :: 		sp_weekday[currentindex] = 0;
	MOVF       main_currentindex+0, 0
	ADDLW      main_sp_weekday+0
	MOVWF      FSR
	CLRF       INDF+0
;main.c,88 :: 		sp_day[currentindex] = 0;
	MOVF       main_currentindex+0, 0
	ADDLW      main_sp_day+0
	MOVWF      FSR
	CLRF       INDF+0
;main.c,89 :: 		sp_mn[currentindex] = 0;
	MOVF       main_currentindex+0, 0
	ADDLW      main_sp_mn+0
	MOVWF      FSR
	CLRF       INDF+0
;main.c,90 :: 		sp_year[currentindex] = 0;
	MOVF       main_currentindex+0, 0
	ADDLW      main_sp_year+0
	MOVWF      FSR
	CLRF       INDF+0
;main.c,91 :: 		sp_relay[currentindex] = 0;
	MOVF       main_currentindex+0, 0
	ADDLW      main_sp_relay+0
	MOVWF      FSR
	CLRF       INDF+0
;main.c,92 :: 		sp_relay[currentindex] = param[3];
	MOVF       main_currentindex+0, 0
	ADDLW      main_sp_relay+0
	MOVWF      FSR
	MOVF       USART_TASK_param_L0+3, 0
	MOVWF      INDF+0
;main.c,93 :: 		break;
	GOTO       L_USART_TASK39
;main.c,94 :: 		case RTC_TIME_SET_CMD_CODE:
L_USART_TASK47:
;main.c,95 :: 		Write_Time(param[0], param[1], param[2], param[3], param[4], param[5], param[6]);
	MOVF       USART_TASK_param_L0+0, 0
	MOVWF      FARG_Write_Time_sec+0
	MOVF       USART_TASK_param_L0+1, 0
	MOVWF      FARG_Write_Time_min+0
	MOVF       USART_TASK_param_L0+2, 0
	MOVWF      FARG_Write_Time_hr+0
	MOVF       USART_TASK_param_L0+3, 0
	MOVWF      FARG_Write_Time_week_day+0
	MOVF       USART_TASK_param_L0+4, 0
	MOVWF      FARG_Write_Time_day+0
	MOVF       USART_TASK_param_L0+5, 0
	MOVWF      FARG_Write_Time_mn+0
	MOVF       USART_TASK_param_L0+6, 0
	MOVWF      FARG_Write_Time_year+0
	CALL       _Write_Time+0
;main.c,96 :: 		break;
	GOTO       L_USART_TASK39
;main.c,97 :: 		}
L_USART_TASK38:
	MOVF       USART_TASK_cmd_Type_L0+0, 0
	XORLW      128
	BTFSC      STATUS+0, 2
	GOTO       L_USART_TASK40
	MOVF       USART_TASK_cmd_Type_L0+0, 0
	XORLW      130
	BTFSC      STATUS+0, 2
	GOTO       L_USART_TASK46
	MOVF       USART_TASK_cmd_Type_L0+0, 0
	XORLW      129
	BTFSC      STATUS+0, 2
	GOTO       L_USART_TASK47
L_USART_TASK39:
;main.c,98 :: 		}
L_USART_TASK37:
;main.c,99 :: 		}
L_USART_TASK36:
;main.c,100 :: 		OS_Delay(150);
	MOVLW      150
	MOVWF      FARG__OS_InitDelay_Delay+0
	CLRF       FARG__OS_InitDelay_Delay+1
	CALL       __OS_InitDelay+0
	MOVLW      hi_addr(__OS_ReturnSave+0)
	MOVWF      __pclath+0
	MOVLW      $+4
	MOVWF      __fsr+0
	MOVLW      hi_addr($+2)
	GOTO       __OS_ReturnSave+0
;main.c,101 :: 		}
	GOTO       L_USART_TASK34
;main.c,102 :: 		}
L_end_USART_TASK:
	RETURN
; end of _USART_TASK

_RELAY_TASK:

;main.c,103 :: 		void RELAY_TASK(void)
;main.c,106 :: 		unsigned char i = 0;
	CLRF       RELAY_TASK_i_L0+0
;main.c,108 :: 		while(1)
L_RELAY_TASK48:
;main.c,110 :: 		OS_Csem_Wait(Relay_csem);
L_RELAY_TASK50:
	MOVLW      hi_addr(__OS_ReturnSave+0)
	MOVWF      __pclath+0
	BCF        __pclath+0, 0
	MOVLW      $+4
	MOVWF      __fsr+0
	MOVLW      hi_addr($+32770)
	GOTO       __OS_ReturnSave+0
	MOVLW      0
	XORWF      _Relay_csem+1, 0
	BTFSS      STATUS+0, 2
	GOTO       L__RELAY_TASK93
	MOVLW      0
	XORWF      _Relay_csem+0, 0
L__RELAY_TASK93:
	MOVLW      1
	BTFSC      STATUS+0, 2
	MOVLW      0
	MOVWF      FARG__OS_CheckEvent_bEvent+0
	MOVF       FARG__OS_CheckEvent_bEvent+0, 0
	XORLW      0
	MOVLW      1
	BTFSC      STATUS+0, 2
	MOVLW      0
	MOVWF      FARG__OS_CheckEvent_bEvent+0
	CALL       __OS_CheckEvent+0
	MOVF       R0+0, 0
	BTFSS      STATUS+0, 2
	GOTO       L_RELAY_TASK53
	RETURN
L_RELAY_TASK53:
	CALL       __OS_DI_INT+0
	MOVLW      0
	XORWF      _Relay_csem+1, 0
	BTFSS      STATUS+0, 2
	GOTO       L__RELAY_TASK94
	MOVLW      0
	XORWF      _Relay_csem+0, 0
L__RELAY_TASK94:
	BTFSC      STATUS+0, 2
	GOTO       L_RELAY_TASK54
	GOTO       L_RELAY_TASK51
L_RELAY_TASK54:
	BTFSS      __OS_Temp_I+0, 7
	GOTO       L_RELAY_TASK55
	BSF        GIE_bit+0, BitPos(GIE_bit+0)
L_RELAY_TASK55:
	GOTO       L_RELAY_TASK50
L_RELAY_TASK51:
	MOVLW      1
	SUBWF      _Relay_csem+0, 1
	BTFSS      STATUS+0, 0
	DECF       _Relay_csem+1, 1
	BTFSS      __OS_Temp_I+0, 7
	GOTO       L_RELAY_TASK56
	BSF        GIE_bit+0, BitPos(GIE_bit+0)
L_RELAY_TASK56:
;main.c,111 :: 		if (OS_Queue_Check(RELAY_QUEUE))
	MOVF       _RELAY_QUEUE+1, 0
	BTFSC      STATUS+0, 2
	GOTO       L_RELAY_TASK57
;main.c,113 :: 		OS_Queue_Wait(RELAY_QUEUE, state);
	MOVLW      hi_addr(__OS_ReturnSave+0)
	MOVWF      __pclath+0
	BCF        __pclath+0, 0
	MOVLW      $+4
	MOVWF      __fsr+0
	MOVLW      hi_addr($+32770)
	GOTO       __OS_ReturnSave+0
	MOVF       _RELAY_QUEUE+1, 0
	XORLW      0
	MOVLW      1
	BTFSC      STATUS+0, 2
	MOVLW      0
	MOVWF      FARG__OS_CheckEvent_bEvent+0
	CALL       __OS_CheckEvent+0
	MOVF       R0+0, 0
	BTFSS      STATUS+0, 2
	GOTO       L_RELAY_TASK58
	RETURN
L_RELAY_TASK58:
	MOVLW      _RELAY_QUEUE+0
	MOVWF      FARG__OS_Queue_Get_pQueue+0
	CALL       __OS_Queue_Get+0
	MOVF       R0+0, 0
	MOVWF      RELAY_TASK_state_L0+0
;main.c,114 :: 		for (i = 0; i < 4; i++)
	CLRF       RELAY_TASK_i_L0+0
L_RELAY_TASK59:
	MOVLW      4
	SUBWF      RELAY_TASK_i_L0+0, 0
	BTFSC      STATUS+0, 0
	GOTO       L_RELAY_TASK60
;main.c,116 :: 		tmp = (state >> i) & 0x01;
	MOVF       RELAY_TASK_i_L0+0, 0
	MOVWF      R1+0
	MOVF       RELAY_TASK_state_L0+0, 0
	MOVWF      R0+0
	MOVF       R1+0, 0
L__RELAY_TASK95:
	BTFSC      STATUS+0, 2
	GOTO       L__RELAY_TASK96
	RRF        R0+0, 1
	BCF        R0+0, 7
	ADDLW      255
	GOTO       L__RELAY_TASK95
L__RELAY_TASK96:
	MOVLW      1
	ANDWF      R0+0, 0
	MOVWF      R1+0
;main.c,117 :: 		if (tmp == 1)
	MOVF       R1+0, 0
	XORLW      1
	BTFSS      STATUS+0, 2
	GOTO       L_RELAY_TASK62
;main.c,119 :: 		Relay_ChangeState(RELAY_ON, i);
	MOVLW      1
	MOVWF      FARG_Relay_ChangeState_on_off+0
	MOVF       RELAY_TASK_i_L0+0, 0
	MOVWF      FARG_Relay_ChangeState_relay_id+0
	CALL       _Relay_ChangeState+0
;main.c,120 :: 		}
	GOTO       L_RELAY_TASK63
L_RELAY_TASK62:
;main.c,123 :: 		Relay_ChangeState(RELAY_OFF, i);
	CLRF       FARG_Relay_ChangeState_on_off+0
	MOVF       RELAY_TASK_i_L0+0, 0
	MOVWF      FARG_Relay_ChangeState_relay_id+0
	CALL       _Relay_ChangeState+0
;main.c,124 :: 		}
L_RELAY_TASK63:
;main.c,114 :: 		for (i = 0; i < 4; i++)
	INCF       RELAY_TASK_i_L0+0, 1
;main.c,125 :: 		}
	GOTO       L_RELAY_TASK59
L_RELAY_TASK60:
;main.c,126 :: 		}
L_RELAY_TASK57:
;main.c,127 :: 		}
	GOTO       L_RELAY_TASK48
;main.c,128 :: 		}
L_end_RELAY_TASK:
	RETURN
; end of _RELAY_TASK

_LCD_TASK:

;main.c,129 :: 		void LCD_TASK(void)
;main.c,131 :: 		char sec = 0;
	CLRF       LCD_TASK_sec_L0+0
	MOVLW      42
	MOVWF      LCD_TASK_min_L0+0
	MOVLW      21
	MOVWF      LCD_TASK_hr_L0+0
	CLRF       LCD_TASK_week_day_L0+0
	MOVLW      26
	MOVWF      LCD_TASK_day_L0+0
	MOVLW      3
	MOVWF      LCD_TASK_mn_L0+0
	MOVLW      16
	MOVWF      LCD_TASK_year_L0+0
;main.c,142 :: 		memset(time, 0, 9);
	MOVLW      LCD_TASK_time_L0+0
	MOVWF      FARG_memset_p1+0
	CLRF       FARG_memset_character+0
	MOVLW      9
	MOVWF      FARG_memset_n+0
	MOVLW      0
	MOVWF      FARG_memset_n+1
	CALL       _memset+0
;main.c,143 :: 		memset(date, 0, 15);
	MOVLW      LCD_TASK_date_L0+0
	MOVWF      FARG_memset_p1+0
	CLRF       FARG_memset_character+0
	MOVLW      15
	MOVWF      FARG_memset_n+0
	MOVLW      0
	MOVWF      FARG_memset_n+1
	CALL       _memset+0
;main.c,144 :: 		while(1)
L_LCD_TASK64:
;main.c,146 :: 		Read_Time(&sec, &min, &hr, &week_day, &day, &mn, &year);
	MOVLW      LCD_TASK_sec_L0+0
	MOVWF      FARG_Read_Time_sec+0
	MOVLW      LCD_TASK_min_L0+0
	MOVWF      FARG_Read_Time_min+0
	MOVLW      LCD_TASK_hr_L0+0
	MOVWF      FARG_Read_Time_hr+0
	MOVLW      LCD_TASK_week_day_L0+0
	MOVWF      FARG_Read_Time_week_day+0
	MOVLW      LCD_TASK_day_L0+0
	MOVWF      FARG_Read_Time_day+0
	MOVLW      LCD_TASK_mn_L0+0
	MOVWF      FARG_Read_Time_mn+0
	MOVLW      LCD_TASK_year_L0+0
	MOVWF      FARG_Read_Time_year+0
	CALL       _Read_Time+0
;main.c,147 :: 		Transform_Time(&sec, &min, &hr, &week_day, &day, &mn, &year);
	MOVLW      LCD_TASK_sec_L0+0
	MOVWF      FARG_Transform_Time_sec+0
	MOVLW      LCD_TASK_min_L0+0
	MOVWF      FARG_Transform_Time_min+0
	MOVLW      LCD_TASK_hr_L0+0
	MOVWF      FARG_Transform_Time_hr+0
	MOVLW      LCD_TASK_week_day_L0+0
	MOVWF      FARG_Transform_Time_week_day+0
	MOVLW      LCD_TASK_day_L0+0
	MOVWF      FARG_Transform_Time_day+0
	MOVLW      LCD_TASK_mn_L0+0
	MOVWF      FARG_Transform_Time_mn+0
	MOVLW      LCD_TASK_year_L0+0
	MOVWF      FARG_Transform_Time_year+0
	CALL       _Transform_Time+0
;main.c,148 :: 		TimeToString(sec, min, hr, time);
	MOVF       LCD_TASK_sec_L0+0, 0
	MOVWF      FARG_TimeToString_sec+0
	MOVF       LCD_TASK_min_L0+0, 0
	MOVWF      FARG_TimeToString_min+0
	MOVF       LCD_TASK_hr_L0+0, 0
	MOVWF      FARG_TimeToString_hr+0
	MOVLW      LCD_TASK_time_L0+0
	MOVWF      FARG_TimeToString_outtext+0
	CALL       _TimeToString+0
;main.c,149 :: 		lcd16x2_write(1, 5, time);
	MOVLW      1
	MOVWF      FARG_lcd16x2_write_row+0
	MOVLW      5
	MOVWF      FARG_lcd16x2_write_col+0
	MOVLW      LCD_TASK_time_L0+0
	MOVWF      FARG_lcd16x2_write_text+0
	CALL       _lcd16x2_write+0
;main.c,150 :: 		DateToString(week_day, day, mn, year, date);
	MOVF       LCD_TASK_week_day_L0+0, 0
	MOVWF      FARG_DateToString_week_day+0
	MOVF       LCD_TASK_day_L0+0, 0
	MOVWF      FARG_DateToString_day+0
	MOVF       LCD_TASK_mn_L0+0, 0
	MOVWF      FARG_DateToString_mn+0
	MOVF       LCD_TASK_year_L0+0, 0
	MOVWF      FARG_DateToString_year+0
	MOVLW      LCD_TASK_date_L0+0
	MOVWF      FARG_DateToString_outtext+0
	CALL       _DateToString+0
;main.c,151 :: 		lcd16x2_write(2, 2, date);
	MOVLW      2
	MOVWF      FARG_lcd16x2_write_row+0
	MOVLW      2
	MOVWF      FARG_lcd16x2_write_col+0
	MOVLW      LCD_TASK_date_L0+0
	MOVWF      FARG_lcd16x2_write_text+0
	CALL       _lcd16x2_write+0
;main.c,152 :: 		if (CompareTime(sec, min, hr, week_day, day, mn, year, &Index))
	MOVF       LCD_TASK_sec_L0+0, 0
	MOVWF      FARG_CompareTime_sec+0
	MOVF       LCD_TASK_min_L0+0, 0
	MOVWF      FARG_CompareTime_min+0
	MOVF       LCD_TASK_hr_L0+0, 0
	MOVWF      FARG_CompareTime_hr+0
	MOVF       LCD_TASK_week_day_L0+0, 0
	MOVWF      FARG_CompareTime_week_day+0
	MOVF       LCD_TASK_day_L0+0, 0
	MOVWF      FARG_CompareTime_day+0
	MOVF       LCD_TASK_mn_L0+0, 0
	MOVWF      FARG_CompareTime_mn+0
	MOVF       LCD_TASK_year_L0+0, 0
	MOVWF      FARG_CompareTime_year+0
	MOVLW      LCD_TASK_Index_L0+0
	MOVWF      FARG_CompareTime_Index+0
	CALL       _CompareTime+0
	MOVF       R0+0, 0
	BTFSC      STATUS+0, 2
	GOTO       L_LCD_TASK66
;main.c,154 :: 		OS_Csem_Signal(Relay_csem);
L_LCD_TASK67:
	CALL       __OS_DI_INT+0
	MOVLW      _Relay_csem+0
	MOVWF      FARG__OS_Csem_Signal_pCSem+0
	CALL       __OS_Csem_Signal+0
	BTFSS      __OS_Temp_I+0, 7
	GOTO       L_LCD_TASK70
	BSF        GIE_bit+0, BitPos(GIE_bit+0)
L_LCD_TASK70:
	BTFSC      __OS_Flags+0, 0
	GOTO       L_LCD_TASK71
	GOTO       L_LCD_TASK68
L_LCD_TASK71:
	MOVLW      hi_addr(__OS_ReturnSave+0)
	MOVWF      __pclath+0
	MOVLW      $+4
	MOVWF      __fsr+0
	MOVLW      hi_addr($+2)
	GOTO       __OS_ReturnSave+0
	GOTO       L_LCD_TASK67
L_LCD_TASK68:
;main.c,155 :: 		OS_Queue_Send_Now(RELAY_QUEUE, (OST_MSG)sp_relay[Index]);
	MOVLW      _RELAY_QUEUE+0
	MOVWF      FARG__OS_Queue_Send_pQueue+0
	MOVF       LCD_TASK_Index_L0+0, 0
	ADDLW      main_sp_relay+0
	MOVWF      FSR
	MOVF       INDF+0, 0
	MOVWF      FARG__OS_Queue_Send_Msg+0
	CALL       __OS_Queue_Send+0
;main.c,156 :: 		}
L_LCD_TASK66:
;main.c,157 :: 		OS_Delay(500);
	MOVLW      244
	MOVWF      FARG__OS_InitDelay_Delay+0
	MOVLW      1
	MOVWF      FARG__OS_InitDelay_Delay+1
	CALL       __OS_InitDelay+0
	MOVLW      hi_addr(__OS_ReturnSave+0)
	MOVWF      __pclath+0
	MOVLW      $+4
	MOVWF      __fsr+0
	MOVLW      hi_addr($+2)
	GOTO       __OS_ReturnSave+0
;main.c,158 :: 		}
	GOTO       L_LCD_TASK64
;main.c,159 :: 		}
L_end_LCD_TASK:
	RETURN
; end of _LCD_TASK

_CompareTime:

;main.c,160 :: 		bool CompareTime(char sec, char min, char hr, char week_day, char day, char mn, char year, char *Index)
;main.c,162 :: 		char i = 0;
	CLRF       CompareTime_i_L0+0
	CLRF       CompareTime_returnval_L0+0
;main.c,164 :: 		for ( i = 0; i < MAX_STORAGE_TIME; i++)
	CLRF       CompareTime_i_L0+0
L_CompareTime72:
	MOVLW      3
	SUBWF      CompareTime_i_L0+0, 0
	BTFSC      STATUS+0, 0
	GOTO       L_CompareTime73
;main.c,166 :: 		if (sec == sp_sec[i] && min == sp_min[i] && hr ==  sp_hr[i] &&
	MOVF       CompareTime_i_L0+0, 0
	ADDLW      main_sp_sec+0
	MOVWF      FSR
	MOVF       FARG_CompareTime_sec+0, 0
	XORWF      INDF+0, 0
	BTFSS      STATUS+0, 2
	GOTO       L_CompareTime77
	MOVF       CompareTime_i_L0+0, 0
	ADDLW      main_sp_min+0
	MOVWF      FSR
	MOVF       FARG_CompareTime_min+0, 0
	XORWF      INDF+0, 0
	BTFSS      STATUS+0, 2
	GOTO       L_CompareTime77
	MOVF       CompareTime_i_L0+0, 0
	ADDLW      main_sp_hr+0
	MOVWF      FSR
	MOVF       FARG_CompareTime_hr+0, 0
	XORWF      INDF+0, 0
	BTFSS      STATUS+0, 2
	GOTO       L_CompareTime77
;main.c,167 :: 		week_day == sp_weekday[i] &&  day == sp_day[i] && mn == sp_mn[i] &&
	MOVF       CompareTime_i_L0+0, 0
	ADDLW      main_sp_weekday+0
	MOVWF      FSR
	MOVF       FARG_CompareTime_week_day+0, 0
	XORWF      INDF+0, 0
	BTFSS      STATUS+0, 2
	GOTO       L_CompareTime77
	MOVF       CompareTime_i_L0+0, 0
	ADDLW      main_sp_day+0
	MOVWF      FSR
	MOVF       FARG_CompareTime_day+0, 0
	XORWF      INDF+0, 0
	BTFSS      STATUS+0, 2
	GOTO       L_CompareTime77
	MOVF       CompareTime_i_L0+0, 0
	ADDLW      main_sp_mn+0
	MOVWF      FSR
	MOVF       FARG_CompareTime_mn+0, 0
	XORWF      INDF+0, 0
	BTFSS      STATUS+0, 2
	GOTO       L_CompareTime77
;main.c,168 :: 		year ==  sp_relay[i])
	MOVF       CompareTime_i_L0+0, 0
	ADDLW      main_sp_relay+0
	MOVWF      FSR
	MOVF       FARG_CompareTime_year+0, 0
	XORWF      INDF+0, 0
	BTFSS      STATUS+0, 2
	GOTO       L_CompareTime77
L__CompareTime89:
;main.c,170 :: 		*Index = i;
	MOVF       FARG_CompareTime_Index+0, 0
	MOVWF      FSR
	MOVF       CompareTime_i_L0+0, 0
	MOVWF      INDF+0
;main.c,171 :: 		returnval = true;
	MOVLW      1
	MOVWF      CompareTime_returnval_L0+0
;main.c,172 :: 		break;
	GOTO       L_CompareTime73
;main.c,173 :: 		}
L_CompareTime77:
;main.c,164 :: 		for ( i = 0; i < MAX_STORAGE_TIME; i++)
	INCF       CompareTime_i_L0+0, 1
;main.c,174 :: 		}
	GOTO       L_CompareTime72
L_CompareTime73:
;main.c,175 :: 		return returnval;
	MOVF       CompareTime_returnval_L0+0, 0
	MOVWF      R0+0
;main.c,176 :: 		}
L_end_CompareTime:
	RETURN
; end of _CompareTime

_systick_init:

;main.c,177 :: 		void systick_init()
;main.c,179 :: 		T2CON         = 0x25;
	MOVLW      37
	MOVWF      T2CON+0
;main.c,180 :: 		PR2                 = 250;
	MOVLW      250
	MOVWF      PR2+0
;main.c,181 :: 		TMR2IE_bit         = 1;
	BSF        TMR2IE_bit+0, BitPos(TMR2IE_bit+0)
;main.c,182 :: 		INTCON         = 0xC0;
	MOVLW      192
	MOVWF      INTCON+0
;main.c,183 :: 		}
L_end_systick_init:
	RETURN
; end of _systick_init

_systick_INT:
	MOVWF      R15+0
	SWAPF      STATUS+0, 0
	CLRF       STATUS+0
	MOVWF      ___saveSTATUS+0
	MOVF       PCLATH+0, 0
	MOVWF      ___savePCLATH+0
	CLRF       PCLATH+0

;main.c,184 :: 		void systick_INT() iv 0x0004 ics ICS_AUTO
;main.c,186 :: 		if (TMR2IF_bit)
	BTFSS      TMR2IF_bit+0, BitPos(TMR2IF_bit+0)
	GOTO       L_systick_INT78
;main.c,188 :: 		TMR2IF_bit = 0;
	BCF        TMR2IF_bit+0, BitPos(TMR2IF_bit+0)
;main.c,189 :: 		OS_Timer();
	CLRF       systick_INT__os_i_L3+0
L_systick_INT79:
	MOVLW      5
	SUBWF      systick_INT__os_i_L3+0, 0
	BTFSC      STATUS+0, 0
	GOTO       L_systick_INT80
	MOVLW      5
	MOVWF      R0+0
	MOVF       systick_INT__os_i_L3+0, 0
	MOVWF      R4+0
	CALL       _Mul_8X8_U+0
	MOVF       R0+0, 0
	ADDLW      __OS_Tasks+0
	MOVWF      FSR
	MOVF       INDF+0, 0
	MOVWF      R0+0
	BTFSS      R0+0, 4
	GOTO       L_systick_INT82
	MOVLW      5
	MOVWF      R0+0
	MOVF       systick_INT__os_i_L3+0, 0
	MOVWF      R4+0
	CALL       _Mul_8X8_U+0
	MOVLW      __OS_Tasks+0
	ADDWF      R0+0, 1
	MOVLW      3
	ADDWF      R0+0, 0
	MOVWF      R2+0
	MOVF       R2+0, 0
	MOVWF      FSR
	MOVF       INDF+0, 0
	ADDLW      1
	MOVWF      R0+0
	MOVLW      0
	BTFSC      STATUS+0, 0
	ADDLW      1
	INCF       FSR, 1
	ADDWF      INDF+0, 0
	MOVWF      R0+1
	MOVF       R2+0, 0
	MOVWF      FSR
	MOVF       R0+0, 0
	MOVWF      INDF+0
	MOVF       R0+1, 0
	INCF       FSR, 1
	MOVWF      INDF+0
	MOVF       R2+0, 0
	MOVWF      FSR
	MOVF       INDF+0, 0
	MOVWF      R0+0
	INCF       FSR, 1
	MOVF       INDF+0, 0
	MOVWF      R0+1
	MOVF       R0+0, 0
	IORWF      R0+1, 0
	BTFSS      STATUS+0, 2
	GOTO       L_systick_INT83
	MOVLW      5
	MOVWF      R0+0
	MOVF       systick_INT__os_i_L3+0, 0
	MOVWF      R4+0
	CALL       _Mul_8X8_U+0
	MOVF       R0+0, 0
	ADDLW      __OS_Tasks+0
	MOVWF      FSR
	BCF        INDF+0, 4
L_systick_INT83:
L_systick_INT82:
	INCF       systick_INT__os_i_L3+0, 1
	GOTO       L_systick_INT79
L_systick_INT80:
;main.c,190 :: 		}
L_systick_INT78:
;main.c,191 :: 		}
L_end_systick_INT:
L__systick_INT101:
	MOVF       ___savePCLATH+0, 0
	MOVWF      PCLATH+0
	SWAPF      ___saveSTATUS+0, 0
	MOVWF      STATUS+0
	SWAPF      R15+0, 1
	SWAPF      R15+0, 0
	RETFIE
; end of _systick_INT
